target datalayout = "e-m:e-p270:32:32-p271:32:32-p272:64:64-i64:64-i128:128-f80:128-n8:16:32:64-S128"
target triple = "x86_64-pc-linux-gnu"

%struct._object = type { %union.anon, ptr }
%union.anon = type { i64 }
%struct.PyVarObject = type { %struct._object, i64 }
%struct._typeobject = type { %struct.PyVarObject, ptr, i64, i64, ptr, i64, ptr, ptr, ptr, ptr, ptr, ptr, ptr, ptr, ptr, ptr, ptr, ptr, ptr, i64, ptr, ptr, ptr, ptr, i64, ptr, ptr, ptr, ptr, ptr, ptr, ptr, ptr, ptr, i64, ptr, ptr, ptr, ptr, ptr, ptr, ptr, ptr, ptr, ptr, ptr, i32, ptr, ptr, i8, i16 }
%struct.superobject = type { %struct._object, ptr, ptr, ptr }

@.str.390 = private unnamed_addr constant [35 x i8] c"<super: <class '%s'>, <%s object>>\00", align 1
@.str.391 = private unnamed_addr constant [5 x i8] c"NULL\00", align 1
@.str.392 = private unnamed_addr constant [28 x i8] c"<super: <class '%s'>, NULL>\00", align 1

; Function Attrs: nounwind uwtable
define internal ptr @super_repr(ptr noundef %0) #0 {
  %2 = alloca ptr, align 8
  %3 = alloca ptr, align 8
  %4 = alloca ptr, align 8
  %5 = alloca i32, align 4
  store ptr %0, ptr %3, align 8, !tbaa !97
  call void @llvm.lifetime.start.p0(i64 8, ptr %4) #11
  %6 = load ptr, ptr %3, align 8, !tbaa !97
  store ptr %6, ptr %4, align 8, !tbaa !13
  %7 = load ptr, ptr %4, align 8, !tbaa !13
  %8 = getelementptr inbounds nuw %struct.superobject, ptr %7, i32 0, i32 3
  %9 = load ptr, ptr %8, align 8, !tbaa !370
  %10 = icmp ne ptr %9, null
  br i1 %10, label %11, label %31

11:                                               ; preds = %1
  %12 = load ptr, ptr %4, align 8, !tbaa !13
  %13 = getelementptr inbounds nuw %struct.superobject, ptr %12, i32 0, i32 1
  %14 = load ptr, ptr %13, align 8, !tbaa !369
  %15 = icmp ne ptr %14, null
  br i1 %15, label %16, label %22

16:                                               ; preds = %11
  %17 = load ptr, ptr %4, align 8, !tbaa !13
  %18 = getelementptr inbounds nuw %struct.superobject, ptr %17, i32 0, i32 1
  %19 = load ptr, ptr %18, align 8, !tbaa !369
  %20 = getelementptr inbounds nuw %struct._typeobject, ptr %19, i32 0, i32 1
  %21 = load ptr, ptr %20, align 8, !tbaa !239
  br label %23

22:                                               ; preds = %11
  br label %23

23:                                               ; preds = %22, %16
  %24 = phi ptr [ %21, %16 ], [ @.str.391, %22 ]
  %25 = load ptr, ptr %4, align 8, !tbaa !13
  %26 = getelementptr inbounds nuw %struct.superobject, ptr %25, i32 0, i32 3
  %27 = load ptr, ptr %26, align 8, !tbaa !370
  %28 = getelementptr inbounds nuw %struct._typeobject, ptr %27, i32 0, i32 1
  %29 = load ptr, ptr %28, align 8, !tbaa !239
  %30 = call ptr (ptr, ...) @PyUnicode_FromFormat(ptr noundef @.str.390, ptr noundef %24, ptr noundef %29)
  store ptr %30, ptr %2, align 8
  store i32 1, ptr %5, align 4
  br label %46

31:                                               ; preds = %1
  %32 = load ptr, ptr %4, align 8, !tbaa !13
  %33 = getelementptr inbounds nuw %struct.superobject, ptr %32, i32 0, i32 1
  %34 = load ptr, ptr %33, align 8, !tbaa !369
  %35 = icmp ne ptr %34, null
  br i1 %35, label %36, label %42

36:                                               ; preds = %31
  %37 = load ptr, ptr %4, align 8, !tbaa !13
  %38 = getelementptr inbounds nuw %struct.superobject, ptr %37, i32 0, i32 1
  %39 = load ptr, ptr %38, align 8, !tbaa !369
  %40 = getelementptr inbounds nuw %struct._typeobject, ptr %39, i32 0, i32 1
  %41 = load ptr, ptr %40, align 8, !tbaa !239
  br label %43

42:                                               ; preds = %31
  br label %43

43:                                               ; preds = %42, %36
  %44 = phi ptr [ %41, %36 ], [ @.str.391, %42 ]
  %45 = call ptr (ptr, ...) @PyUnicode_FromFormat(ptr noundef @.str.392, ptr noundef %44)
  store ptr %45, ptr %2, align 8
  store i32 1, ptr %5, align 4
  br label %46

46:                                               ; preds = %43, %23
  call void @llvm.lifetime.end.p0(i64 8, ptr %4) #11
  %47 = load ptr, ptr %2, align 8
  ret ptr %47
}