; Function Attrs: nounwind uwtable
define internal ptr @super_repr(ptr noundef readonly captures(none) %0) #1 {
  %2 = getelementptr inbounds nuw i8, ptr %0, i64 32
  %3 = load ptr, ptr %2, align 8, !tbaa !434
  %.not = icmp eq ptr %3, null
  %4 = getelementptr inbounds nuw i8, ptr %0, i64 16
  %5 = load ptr, ptr %4, align 8, !tbaa !433
  %.not10 = icmp eq ptr %5, null
  br i1 %.not, label %15, label %6

6:                                                ; preds = %1
  br i1 %.not10, label %10, label %7

7:                                                ; preds = %6
  %8 = getelementptr inbounds nuw i8, ptr %5, i64 24
  %9 = load ptr, ptr %8, align 8, !tbaa !227
  br label %10

10:                                               ; preds = %6, %7
  %11 = phi ptr [ %9, %7 ], [ @.str.391, %6 ]
  %12 = getelementptr inbounds nuw i8, ptr %3, i64 24
  %13 = load ptr, ptr %12, align 8, !tbaa !227
  %14 = tail call ptr (ptr, ...) @PyUnicode_FromFormat(ptr noundef nonnull @.str.390, ptr noundef %11, ptr noundef %13) #24
  br label %22

15:                                               ; preds = %1
  br i1 %.not10, label %19, label %16

16:                                               ; preds = %15
  %17 = getelementptr inbounds nuw i8, ptr %5, i64 24
  %18 = load ptr, ptr %17, align 8, !tbaa !227
  br label %19

19:                                               ; preds = %15, %16
  %20 = phi ptr [ %18, %16 ], [ @.str.391, %15 ]
  %21 = tail call ptr (ptr, ...) @PyUnicode_FromFormat(ptr noundef nonnull @.str.392, ptr noundef %20) #24
  br label %22

22:                                               ; preds = %19, %10
  %.0 = phi ptr [ %14, %10 ], [ %21, %19 ]
  ret ptr %.0
}